target datalayout = "e-m:e-p270:32:32-p271:32:32-p272:64:64-i64:64-i128:128-f80:128-n8:16:32:64-S128"
target triple = "x86_64-pc-linux-gnu"

%struct.H5FL_reg_head_t = type { i8, i32, i32, ptr, i64, ptr }

@H5_H5S_extent_t_reg_free_list = external global %struct.H5FL_reg_head_t, align 8
@.str.4 = private unnamed_addr constant [104 x i8] c"generated/home/dtcxzyw/WorkSpace/Projects/compilers/llvm-opt-benchmark/bench/hdf5/hdf5/src/H5Osdspace.c\00", align 1
@H5E_DATASPACE_g = external global i64, align 8
@H5E_RESOURCE_g = external global i64, align 8
@.str.10 = private unnamed_addr constant [25 x i8] c"memory allocation failed\00", align 1
@H5E_CANTCOPY_g = external global i64, align 8
@__func__.H5O__sdspace_copy = private unnamed_addr constant [18 x i8] c"H5O__sdspace_copy\00", align 1
@H5E_NOSPACE_g = external global i64, align 8
@.str.36 = private unnamed_addr constant [18 x i8] c"can't copy extent\00", align 1

; Function Attrs: nounwind uwtable
define internal ptr @H5O__sdspace_copy(ptr noundef %0, ptr noundef %1) #0 {
  %3 = alloca ptr, align 8
  %4 = alloca ptr, align 8
  %5 = alloca ptr, align 8
  %6 = alloca ptr, align 8
  %7 = alloca ptr, align 8
  %8 = alloca i8, align 1
  store ptr %0, ptr %3, align 8
  store ptr %1, ptr %4, align 8
  %9 = load ptr, ptr %3, align 8
  store ptr %9, ptr %5, align 8
  %10 = load ptr, ptr %4, align 8
  store ptr %10, ptr %6, align 8
  store ptr null, ptr %7, align 8
  store i8 0, ptr %8, align 1
  %11 = load ptr, ptr %6, align 8
  %12 = icmp ne ptr %11, null
  br i1 %12, label %31, label %13

13:                                               ; preds = %2
  %14 = call noalias ptr @H5FL_reg_calloc(ptr noundef @H5_H5S_extent_t_reg_free_list)
  store ptr %14, ptr %6, align 8
  %15 = icmp eq ptr null, %14
  br i1 %15, label %16, label %31

16:                                               ; preds = %13
  br label %17

17:                                               ; preds = %16
  br label %18

18:                                               ; preds = %17
  br label %19

19:                                               ; preds = %18
  %20 = load i64, ptr @H5E_RESOURCE_g, align 8
  %21 = load i64, ptr @H5E_NOSPACE_g, align 8
  %22 = call i32 (ptr, ptr, i32, i64, i64, ptr, ...) @H5E_printf_stack(ptr noundef @.str.4, ptr noundef @__func__.H5O__sdspace_copy, i32 noundef 328, i64 noundef %20, i64 noundef %21, ptr noundef @.str.10)
  br label %23

23:                                               ; preds = %19
  store i8 1, ptr %8, align 1
  %24 = load i8, ptr %8, align 1
  %25 = trunc i8 %24 to i1
  %26 = zext i1 %25 to i8
  store i8 %26, ptr %8, align 1
  br label %27

27:                                               ; preds = %23
  br label %28

28:                                               ; preds = %27
  store ptr null, ptr %7, align 8
  br label %53

29:                                               ; No predecessors!
  br label %30

30:                                               ; preds = %29
  br label %31

31:                                               ; preds = %30, %13, %2
  %32 = load ptr, ptr %6, align 8
  %33 = load ptr, ptr %5, align 8
  %34 = call i32 @H5S__extent_copy_real(ptr noundef %32, ptr noundef %33, i1 noundef zeroext true)
  %35 = icmp slt i32 %34, 0
  br i1 %35, label %36, label %51

36:                                               ; preds = %31
  br label %37

37:                                               ; preds = %36
  br label %38

38:                                               ; preds = %37
  br label %39

39:                                               ; preds = %38
  %40 = load i64, ptr @H5E_DATASPACE_g, align 8
  %41 = load i64, ptr @H5E_CANTCOPY_g, align 8
  %42 = call i32 (ptr, ptr, i32, i64, i64, ptr, ...) @H5E_printf_stack(ptr noundef @.str.4, ptr noundef @__func__.H5O__sdspace_copy, i32 noundef 332, i64 noundef %40, i64 noundef %41, ptr noundef @.str.36)
  br label %43

43:                                               ; preds = %39
  store i8 1, ptr %8, align 1
  %44 = load i8, ptr %8, align 1
  %45 = trunc i8 %44 to i1
  %46 = zext i1 %45 to i8
  store i8 %46, ptr %8, align 1
  br label %47

47:                                               ; preds = %43
  br label %48

48:                                               ; preds = %47
  store ptr null, ptr %7, align 8
  br label %53

49:                                               ; No predecessors!
  br label %50

50:                                               ; preds = %49
  br label %51

51:                                               ; preds = %50, %31
  %52 = load ptr, ptr %6, align 8
  store ptr %52, ptr %7, align 8
  br label %53

53:                                               ; preds = %51, %48, %28
  %54 = load ptr, ptr %7, align 8
  %55 = icmp eq ptr null, %54
  br i1 %55, label %56, label %66

56:                                               ; preds = %53
  %57 = load ptr, ptr %6, align 8
  %58 = icmp ne ptr %57, null
  br i1 %58, label %59, label %65

59:                                               ; preds = %56
  %60 = load ptr, ptr %4, align 8
  %61 = icmp eq ptr null, %60
  br i1 %61, label %62, label %65

62:                                               ; preds = %59
  %63 = load ptr, ptr %6, align 8
  %64 = call ptr @H5FL_reg_free(ptr noundef @H5_H5S_extent_t_reg_free_list, ptr noundef %63)
  store ptr %64, ptr %6, align 8
  br label %65

65:                                               ; preds = %62, %59, %56
  br label %66

66:                                               ; preds = %65, %53
  %67 = load ptr, ptr %7, align 8
  ret ptr %67
}