; Function Attrs: nounwind uwtable
define internal noundef ptr @H5O__sdspace_copy(ptr noundef %0, ptr noundef %1) #0 {
  %.not = icmp eq ptr %1, null
  br i1 %.not, label %3, label %9

3:                                                ; preds = %2
  %4 = tail call noalias ptr @H5FL_reg_calloc(ptr noundef nonnull @H5_H5S_extent_t_reg_free_list) #5
  %5 = icmp eq ptr %4, null
  br i1 %5, label %.thread22, label %9

.thread22:                                        ; preds = %3
  %6 = load i64, ptr @H5E_RESOURCE_g, align 8
  %7 = load i64, ptr @H5E_NOSPACE_g, align 8
  %8 = tail call i32 (ptr, ptr, i32, i64, i64, ptr, ...) @H5E_printf_stack(ptr noundef nonnull @.str.4, ptr noundef nonnull @__func__.H5O__sdspace_copy, i32 noundef 328, i64 noundef %6, i64 noundef %7, ptr noundef nonnull @.str.10) #5
  br label %18

9:                                                ; preds = %3, %2
  %.013 = phi ptr [ %1, %2 ], [ %4, %3 ]
  %10 = tail call i32 @H5S__extent_copy_real(ptr noundef nonnull %.013, ptr noundef %0, i1 noundef zeroext true) #5
  %11 = icmp slt i32 %10, 0
  br i1 %11, label %12, label %18

12:                                               ; preds = %9
  %13 = load i64, ptr @H5E_DATASPACE_g, align 8
  %14 = load i64, ptr @H5E_CANTCOPY_g, align 8
  %15 = tail call i32 (ptr, ptr, i32, i64, i64, ptr, ...) @H5E_printf_stack(ptr noundef nonnull @.str.4, ptr noundef nonnull @__func__.H5O__sdspace_copy, i32 noundef 332, i64 noundef %13, i64 noundef %14, ptr noundef nonnull @.str.36) #5
  br i1 %.not, label %16, label %18

16:                                               ; preds = %12
  %17 = tail call ptr @H5FL_reg_free(ptr noundef nonnull @H5_H5S_extent_t_reg_free_list, ptr noundef nonnull %.013) #5
  br label %18

18:                                               ; preds = %.thread22, %9, %12, %16
  %.020 = phi ptr [ null, %12 ], [ null, %16 ], [ %.013, %9 ], [ null, %.thread22 ]
  ret ptr %.020
}